; Function Attrs: mustprogress nounwind uwtable
define dso_local void @_ZNK4llvm3pdb13DbiModuleList19getModuleDescriptorEj(ptr dead_on_unwind noalias nocapture writable writeonly sret(%"class.llvm::pdb::DbiModuleDescriptor") align 8 %0, ptr noundef nonnull align 8 dereferenceable(352) %1, i32 noundef %2) local_unnamed_addr #0 align 2 {
  %4 = alloca %"class.llvm::VarStreamArrayIterator", align 8
  %5 = getelementptr inbounds nuw i8, ptr %1, i64 176
  %6 = zext i32 %2 to i64
  %7 = load ptr, ptr %5, align 8
  %8 = getelementptr inbounds i32, ptr %7, i64 %6
  %9 = load i32, ptr %8, align 4
  %10 = getelementptr inbounds i8, ptr %1, i64 48
  call void @_ZN4llvm22VarStreamArrayIteratorINS_3pdb19DbiModuleDescriptorENS_23VarStreamArrayExtractorIS2_EEEC2ERKNS_14VarStreamArrayIS2_S4_EERKS4_jPb(ptr noundef nonnull align 8 dereferenceable(128) %4, ptr noundef nonnull align 8 dereferenceable(56) %1, ptr noundef nonnull align 1 dereferenceable(1) %10, i32 noundef %9, ptr noundef null)
  call void @llvm.memcpy.p0.p0.i64(ptr noundef nonnull align 8 dereferenceable(40) %0, ptr noundef nonnull align 8 dereferenceable(40) %4, i64 40, i1 false)
  %11 = getelementptr inbounds i8, ptr %4, i64 48
  %12 = load ptr, ptr %11, align 8
  %.not.i.i.i.i.i.i = icmp eq ptr %12, null
  br i1 %.not.i.i.i.i.i.i, label %_ZN4llvm22VarStreamArrayIteratorINS_3pdb19DbiModuleDescriptorENS_23VarStreamArrayExtractorIS2_EEED2Ev.exit, label %13

13:                                               ; preds = %3
  %14 = getelementptr inbounds nuw i8, ptr %12, i64 8
  %15 = load atomic i64, ptr %14 acquire, align 8
  %16 = icmp eq i64 %15, 4294967297
  %17 = trunc i64 %15 to i32
  br i1 %16, label %18, label %23

18:                                               ; preds = %13
  store i32 0, ptr %14, align 8
  %19 = getelementptr inbounds nuw i8, ptr %12, i64 12
  store i32 0, ptr %19, align 4
  %20 = load ptr, ptr %12, align 8
  %21 = getelementptr inbounds i8, ptr %20, i64 16
  %22 = load ptr, ptr %21, align 8
  call void %22(ptr noundef nonnull align 8 dereferenceable(16) %12) #15
  br label %_ZNSt16_Sp_counted_baseILN9__gnu_cxx12_Lock_policyE2EE24_M_release_last_use_coldEv.exit.sink.split.i.i.i.i.i.i.i

23:                                               ; preds = %13
  %24 = load i8, ptr @__libc_single_threaded, align 1
  %.not.i.i.i.i.i.i.i = icmp eq i8 %24, 0
  br i1 %.not.i.i.i.i.i.i.i, label %27, label %25

25:                                               ; preds = %23
  %26 = add nsw i32 %17, -1
  store i32 %26, ptr %14, align 4
  br label %29

27:                                               ; preds = %23
  %28 = atomicrmw volatile add ptr %14, i32 -1 acq_rel, align 4
  br label %29

29:                                               ; preds = %27, %25
  %.0.i.i.i.i.i.i.i = phi i32 [ %17, %25 ], [ %28, %27 ]
  %30 = icmp eq i32 %.0.i.i.i.i.i.i.i, 1
  br i1 %30, label %31, label %_ZN4llvm22VarStreamArrayIteratorINS_3pdb19DbiModuleDescriptorENS_23VarStreamArrayExtractorIS2_EEED2Ev.exit

31:                                               ; preds = %29
  %32 = load ptr, ptr %12, align 8
  %33 = getelementptr inbounds i8, ptr %32, i64 16
  %34 = load ptr, ptr %33, align 8
  call void %34(ptr noundef nonnull align 8 dereferenceable(16) %12) #15
  %35 = getelementptr inbounds nuw i8, ptr %12, i64 12
  %36 = load i8, ptr @__libc_single_threaded, align 1
  %.not.i.i.i.i.i.i.i.i.i = icmp eq i8 %36, 0
  br i1 %.not.i.i.i.i.i.i.i.i.i, label %40, label %37

37:                                               ; preds = %31
  %38 = load i32, ptr %35, align 4
  %39 = add nsw i32 %38, -1
  store i32 %39, ptr %35, align 4
  br label %42

40:                                               ; preds = %31
  %41 = atomicrmw volatile add ptr %35, i32 -1 acq_rel, align 4
  br label %42

42:                                               ; preds = %40, %37
  %.0.i.i.i.i.i.i.i.i.i = phi i32 [ %38, %37 ], [ %41, %40 ]
  %43 = icmp eq i32 %.0.i.i.i.i.i.i.i.i.i, 1
  br i1 %43, label %_ZNSt16_Sp_counted_baseILN9__gnu_cxx12_Lock_policyE2EE24_M_release_last_use_coldEv.exit.sink.split.i.i.i.i.i.i.i, label %_ZN4llvm22VarStreamArrayIteratorINS_3pdb19DbiModuleDescriptorENS_23VarStreamArrayExtractorIS2_EEED2Ev.exit

_ZNSt16_Sp_counted_baseILN9__gnu_cxx12_Lock_policyE2EE24_M_release_last_use_coldEv.exit.sink.split.i.i.i.i.i.i.i: ; preds = %42, %18
  %44 = load ptr, ptr %12, align 8
  %45 = getelementptr inbounds i8, ptr %44, i64 24
  %46 = load ptr, ptr %45, align 8
  call void %46(ptr noundef nonnull align 8 dereferenceable(16) %12) #15
  br label %_ZN4llvm22VarStreamArrayIteratorINS_3pdb19DbiModuleDescriptorENS_23VarStreamArrayExtractorIS2_EEED2Ev.exit

_ZN4llvm22VarStreamArrayIteratorINS_3pdb19DbiModuleDescriptorENS_23VarStreamArrayExtractorIS2_EEED2Ev.exit: ; preds = %3, %29, %42, %_ZNSt16_Sp_counted_baseILN9__gnu_cxx12_Lock_policyE2EE24_M_release_last_use_coldEv.exit.sink.split.i.i.i.i.i.i.i
  ret void
}